; Function Attrs: mustprogress uwtable
define void @_ZN2cv8ximgproc18createGuidedFilterERKNS_11_InputArrayEidd(ptr dead_on_unwind noalias writable writeonly sret(%"struct.cv::Ptr.18") align 8 captures(none) initializes((0, 16)) %0, ptr noundef nonnull align 8 dereferenceable(24) %1, i32 noundef %2, double noundef %3, double noundef %4) local_unnamed_addr #3 personality ptr @__gxx_personality_v0 {
_ZNSt12__shared_ptrIN2cv8ximgproc16GuidedFilterImplELN9__gnu_cxx12_Lock_policyE2EED2Ev.exit:
  %5 = alloca %"struct.cv::Ptr", align 8
  call void @llvm.lifetime.start.p0(i64 16, ptr nonnull %5) #22
  call void @_ZN2cv8ximgproc16GuidedFilterImpl6createERKNS_11_InputArrayEidd(ptr dead_on_unwind nonnull writable sret(%"struct.cv::Ptr") align 8 %5, ptr noundef nonnull align 8 dereferenceable(24) %1, i32 noundef %2, double noundef %3, double noundef %4)
  %6 = load ptr, ptr %5, align 8, !tbaa !140
  store ptr %6, ptr %0, align 8, !tbaa !186
  %7 = getelementptr inbounds nuw i8, ptr %0, i64 8
  %8 = getelementptr inbounds nuw i8, ptr %5, i64 8
  %9 = load ptr, ptr %8, align 8, !tbaa !144
  store ptr %9, ptr %7, align 8, !tbaa !144
  call void @llvm.lifetime.end.p0(i64 16, ptr nonnull %5) #22
  ret void
}